target datalayout = "e-m:e-p270:32:32-p271:32:32-p272:64:64-i64:64-i128:128-f80:128-n8:16:32:64-S128"
target triple = "x86_64-pc-linux-gnu"

%"class.benchmark::internal::LogType" = type { ptr }
%"class.std::__cxx11::basic_string" = type { %"struct.std::__cxx11::basic_string<char>::_Alloc_hider", i64, %union.anon }
%"struct.std::__cxx11::basic_string<char>::_Alloc_hider" = type { ptr }
%union.anon = type { i64, [8 x i8] }
%"class.std::vector.5" = type { %"struct.std::_Vector_base.6" }
%"struct.std::_Vector_base.6" = type { %"struct.std::_Vector_base<int, std::allocator<int>>::_Vector_impl" }
%"struct.std::_Vector_base<int, std::allocator<int>>::_Vector_impl" = type { %"struct.std::_Vector_base<int, std::allocator<int>>::_Vector_impl_data" }
%"struct.std::_Vector_base<int, std::allocator<int>>::_Vector_impl_data" = type { ptr, ptr, ptr }
%"class.benchmark::internal::Benchmark" = type { ptr, %"class.std::__cxx11::basic_string", i32, %"class.std::vector.10", %"class.std::vector.15", i32, i8, i32, double, double, i64, i32, i8, i8, i8, i32, ptr, %"class.std::vector.20", %"class.std::vector.5", ptr, ptr }
%"class.std::vector.10" = type { %"struct.std::_Vector_base.11" }
%"struct.std::_Vector_base.11" = type { %"struct.std::_Vector_base<std::__cxx11::basic_string<char>, std::allocator<std::__cxx11::basic_string<char>>>::_Vector_impl" }
%"struct.std::_Vector_base<std::__cxx11::basic_string<char>, std::allocator<std::__cxx11::basic_string<char>>>::_Vector_impl" = type { %"struct.std::_Vector_base<std::__cxx11::basic_string<char>, std::allocator<std::__cxx11::basic_string<char>>>::_Vector_impl_data" }
%"struct.std::_Vector_base<std::__cxx11::basic_string<char>, std::allocator<std::__cxx11::basic_string<char>>>::_Vector_impl_data" = type { ptr, ptr, ptr }
%"class.std::vector.15" = type { %"struct.std::_Vector_base.16" }
%"struct.std::_Vector_base.16" = type { %"struct.std::_Vector_base<std::vector<long>, std::allocator<std::vector<long>>>::_Vector_impl" }
%"struct.std::_Vector_base<std::vector<long>, std::allocator<std::vector<long>>>::_Vector_impl" = type { %"struct.std::_Vector_base<std::vector<long>, std::allocator<std::vector<long>>>::_Vector_impl_data" }
%"struct.std::_Vector_base<std::vector<long>, std::allocator<std::vector<long>>>::_Vector_impl_data" = type { ptr, ptr, ptr }
%"class.std::vector.20" = type { %"struct.std::_Vector_base.21" }
%"struct.std::_Vector_base.21" = type { %"struct.std::_Vector_base<benchmark::internal::Statistics, std::allocator<benchmark::internal::Statistics>>::_Vector_impl" }
%"struct.std::_Vector_base<benchmark::internal::Statistics, std::allocator<benchmark::internal::Statistics>>::_Vector_impl" = type { %"struct.std::_Vector_base<benchmark::internal::Statistics, std::allocator<benchmark::internal::Statistics>>::_Vector_impl_data" }
%"struct.std::_Vector_base<benchmark::internal::Statistics, std::allocator<benchmark::internal::Statistics>>::_Vector_impl_data" = type { ptr, ptr, ptr }

@_ZZN9benchmark8internal18GetNullLogInstanceEvE8null_log = linkonce_odr hidden global %"class.benchmark::internal::LogType" zeroinitializer, comdat, align 8
@_ZGVZN9benchmark8internal18GetNullLogInstanceEvE8null_log = linkonce_odr hidden global i64 0, comdat, align 8

; Function Attrs: mustprogress nounwind uwtable
define linkonce_odr hidden void @_ZN9benchmark8internal7LogTypeC2EPSo(ptr noundef nonnull align 8 dereferenceable(8) %0, ptr noundef %1) unnamed_addr #7 comdat align 2 {
  %3 = alloca ptr, align 8
  %4 = alloca ptr, align 8
  store ptr %0, ptr %3, align 8, !tbaa !194
  store ptr %1, ptr %4, align 8, !tbaa !28
  %5 = load ptr, ptr %3, align 8
  %6 = getelementptr inbounds nuw %"class.benchmark::internal::LogType", ptr %5, i32 0, i32 0
  %7 = load ptr, ptr %4, align 8, !tbaa !28
  store ptr %7, ptr %6, align 8, !tbaa !196
  ret void
}

; Function Attrs: inlinehint mustprogress uwtable
define linkonce_odr hidden noundef nonnull align 8 dereferenceable(8) ptr @_ZN9benchmark8internal18GetNullLogInstanceEv() #8 comdat personality ptr @__gxx_personality_v0 {
  %1 = alloca ptr, align 8
  %2 = alloca i32, align 4
  %3 = load atomic i8, ptr @_ZGVZN9benchmark8internal18GetNullLogInstanceEvE8null_log acquire, align 8
  %4 = icmp eq i8 %3, 0
  br i1 %4, label %5, label %10, !prof !7

5:                                                ; preds = %0
  %6 = call i32 @__cxa_guard_acquire(ptr @_ZGVZN9benchmark8internal18GetNullLogInstanceEvE8null_log) #3
  %7 = icmp ne i32 %6, 0
  br i1 %7, label %8, label %10

8:                                                ; preds = %5
  invoke void @_ZN9benchmark8internal7LogTypeC2EPSo(ptr noundef nonnull align 8 dereferenceable(8) @_ZZN9benchmark8internal18GetNullLogInstanceEvE8null_log, ptr noundef null)
          to label %9 unwind label %11

9:                                                ; preds = %8
  call void @__cxa_guard_release(ptr @_ZGVZN9benchmark8internal18GetNullLogInstanceEvE8null_log) #3
  br label %10

10:                                               ; preds = %9, %5, %0
  ret ptr @_ZZN9benchmark8internal18GetNullLogInstanceEvE8null_log

11:                                               ; preds = %8
  %12 = landingpad { ptr, i32 }
          cleanup
  %13 = extractvalue { ptr, i32 } %12, 0
  store ptr %13, ptr %1, align 8
  %14 = extractvalue { ptr, i32 } %12, 1
  store i32 %14, ptr %2, align 4
  call void @__cxa_guard_abort(ptr @_ZGVZN9benchmark8internal18GetNullLogInstanceEvE8null_log) #3
  br label %15

15:                                               ; preds = %11
  %16 = load ptr, ptr %1, align 8
  %17 = load i32, ptr %2, align 4
  %18 = insertvalue { ptr, i32 } poison, ptr %16, 0
  %19 = insertvalue { ptr, i32 } %18, i32 %17, 1
  resume { ptr, i32 } %19
}

; Function Attrs: mustprogress uwtable
define noundef ptr @_ZN9benchmark8internal9Benchmark11ThreadRangeEii(ptr noundef nonnull align 8 dereferenceable(224) %0, i32 noundef %1, i32 noundef %2) #4 align 2 {
  %4 = alloca ptr, align 8
  %5 = alloca i32, align 4
  %6 = alloca i32, align 4
  store ptr %0, ptr %4, align 8, !tbaa !70
  store i32 %1, ptr %5, align 4, !tbaa !3
  store i32 %2, ptr %6, align 4, !tbaa !3
  %7 = load ptr, ptr %4, align 8
  %8 = call noundef nonnull align 8 dereferenceable(8) ptr @_ZN9benchmark8internal18GetNullLogInstanceEv()
  %9 = call noundef nonnull align 8 dereferenceable(8) ptr @_ZN9benchmark8internal18GetNullLogInstanceEv()
  %10 = getelementptr inbounds nuw %"class.benchmark::internal::Benchmark", ptr %7, i32 0, i32 18
  %11 = load i32, ptr %5, align 4, !tbaa !3
  %12 = load i32, ptr %6, align 4, !tbaa !3
  call void @_ZN9benchmark8internal8AddRangeIiEEvPSt6vectorIT_SaIS3_EES3_S3_i(ptr noundef %10, i32 noundef %11, i32 noundef %12, i32 noundef 2)
  ret ptr %7
}