; Function Attrs: mustprogress uwtable
define noundef nonnull ptr @_ZN9benchmark8internal9Benchmark11ThreadRangeEii(ptr noundef nonnull returned align 8 dereferenceable(224) %0, i32 noundef %1, i32 noundef %2) local_unnamed_addr #5 align 2 personality ptr @__gxx_personality_v0 {
  %4 = load atomic i8, ptr @_ZGVZN9benchmark8internal18GetNullLogInstanceEvE8null_log acquire, align 8
  %5 = icmp eq i8 %4, 0
  br i1 %5, label %6, label %_ZN9benchmark8internal18GetNullLogInstanceEv.exit, !prof !3

6:                                                ; preds = %3
  %7 = tail call i32 @__cxa_guard_acquire(ptr nonnull @_ZGVZN9benchmark8internal18GetNullLogInstanceEvE8null_log) #35
  %.not.i = icmp eq i32 %7, 0
  br i1 %.not.i, label %_ZN9benchmark8internal18GetNullLogInstanceEv.exit, label %8

8:                                                ; preds = %6
  store ptr null, ptr @_ZZN9benchmark8internal18GetNullLogInstanceEvE8null_log, align 8, !tbaa !18
  tail call void @__cxa_guard_release(ptr nonnull @_ZGVZN9benchmark8internal18GetNullLogInstanceEvE8null_log) #35
  br label %_ZN9benchmark8internal18GetNullLogInstanceEv.exit

_ZN9benchmark8internal18GetNullLogInstanceEv.exit: ; preds = %3, %6, %8
  %9 = load atomic i8, ptr @_ZGVZN9benchmark8internal18GetNullLogInstanceEvE8null_log acquire, align 8
  %10 = icmp eq i8 %9, 0
  br i1 %10, label %11, label %_ZN9benchmark8internal18GetNullLogInstanceEv.exit3, !prof !3

11:                                               ; preds = %_ZN9benchmark8internal18GetNullLogInstanceEv.exit
  %12 = tail call i32 @__cxa_guard_acquire(ptr nonnull @_ZGVZN9benchmark8internal18GetNullLogInstanceEvE8null_log) #35
  %.not.i2 = icmp eq i32 %12, 0
  br i1 %.not.i2, label %_ZN9benchmark8internal18GetNullLogInstanceEv.exit3, label %13

13:                                               ; preds = %11
  store ptr null, ptr @_ZZN9benchmark8internal18GetNullLogInstanceEvE8null_log, align 8, !tbaa !18
  tail call void @__cxa_guard_release(ptr nonnull @_ZGVZN9benchmark8internal18GetNullLogInstanceEvE8null_log) #35
  br label %_ZN9benchmark8internal18GetNullLogInstanceEv.exit3

_ZN9benchmark8internal18GetNullLogInstanceEv.exit3: ; preds = %_ZN9benchmark8internal18GetNullLogInstanceEv.exit, %11, %13
  %14 = getelementptr inbounds nuw i8, ptr %0, i64 184
  tail call void @_ZN9benchmark8internal8AddRangeIiEEvPSt6vectorIT_SaIS3_EES3_S3_i(ptr noundef nonnull %14, i32 noundef %1, i32 noundef %2, i32 noundef 2)
  ret ptr %0
}